; Function Attrs: nounwind uwtable
define ptr @l_Lean_PersistentArray_forInAux___at_Lean_Meta_substSomeVar_x3f___spec__2___boxed(ptr noundef %0, ptr noundef %1, ptr noundef %2, ptr noundef %3, ptr noundef %4, ptr noundef %5, ptr noundef %6, ptr noundef %7, ptr noundef %8, ptr noundef %9) local_unnamed_addr #0 {
  %11 = tail call ptr @l_Lean_PersistentArray_forInAux___at_Lean_Meta_substSomeVar_x3f___spec__2(ptr noundef %0, ptr noundef %1, ptr noundef %2, ptr noundef %3, ptr noundef %4, ptr noundef %5, ptr noundef %6, ptr noundef %7, ptr noundef %8, ptr noundef %9)
  %12 = ptrtoint ptr %3 to i64
  %13 = and i64 %12, 1
  %.not = icmp eq i64 %13, 0
  br i1 %.not, label %14, label %lean_dec.exit13

14:                                               ; preds = %10
  %15 = load i32, ptr %3, align 4, !tbaa !5
  %16 = icmp sgt i32 %15, 1
  br i1 %16, label %17, label %19, !prof !10

17:                                               ; preds = %14
  %18 = add nsw i32 %15, -1
  store i32 %18, ptr %3, align 4, !tbaa !5
  br label %lean_dec.exit13

19:                                               ; preds = %14
  %.not.i = icmp eq i32 %15, 0
  br i1 %.not.i, label %lean_dec.exit13, label %20

20:                                               ; preds = %19
  tail call void @lean_dec_ref_cold(ptr noundef nonnull %3) #4
  br label %lean_dec.exit13

lean_dec.exit13:                                  ; preds = %20, %19, %17, %10
  %21 = ptrtoint ptr %2 to i64
  %22 = and i64 %21, 1
  %.not16 = icmp eq i64 %22, 0
  br i1 %.not16, label %23, label %lean_dec.exit

23:                                               ; preds = %lean_dec.exit13
  %24 = load i32, ptr %2, align 4, !tbaa !5
  %25 = icmp sgt i32 %24, 1
  br i1 %25, label %26, label %28, !prof !10

26:                                               ; preds = %23
  %27 = add nsw i32 %24, -1
  store i32 %27, ptr %2, align 4, !tbaa !5
  br label %lean_dec.exit

28:                                               ; preds = %23
  %.not.i14 = icmp eq i32 %24, 0
  br i1 %.not.i14, label %lean_dec.exit, label %29

29:                                               ; preds = %28
  tail call void @lean_dec_ref_cold(ptr noundef nonnull %2) #4
  br label %lean_dec.exit

lean_dec.exit:                                    ; preds = %29, %28, %26, %lean_dec.exit13
  ret ptr %11
}